Certificate:
    Data:
        Version: 3 (0x2)
        Serial Number:
            87:57:46:d0:25:95:81:c4:48:51:90:bb:cd:17:af:68
        Signature Algorithm: sha256WithRSAEncryption
        Issuer: CN=master_CA
        Validity
            Not Before: Dec 16 17:27:02 2023 GMT
            Not After : Nov 30 17:27:02 2026 GMT
        Subject: CN=pc1
        Subject Public Key Info:
            Public Key Algorithm: rsaEncryption
                RSA Public-Key: (2048 bit)
                Modulus:
                    00:e3:3e:ee:b1:6c:a0:92:cb:2e:18:da:5e:a6:c0:
                    5c:96:b2:93:2f:11:e9:3c:e3:1a:af:43:17:32:e2:
                    18:f8:e8:00:df:78:f5:c5:62:d0:e9:9f:ff:df:72:
                    07:ce:6c:73:19:6d:3d:20:18:ba:ac:cb:f0:8e:e9:
                    5f:7f:3a:3f:bb:2f:7c:cc:03:74:79:35:ef:16:b3:
                    67:23:30:b1:5c:c3:0f:c3:fe:e3:66:57:3e:f6:ff:
                    08:db:37:3a:cf:83:9a:6d:38:18:17:8b:78:18:62:
                    18:ad:5d:30:80:95:ca:3e:84:c6:3e:fe:31:a7:87:
                    a4:04:2a:f1:ac:80:1b:f9:32:7a:62:2b:97:ea:65:
                    80:13:fe:5d:c6:18:95:33:cf:30:10:0c:2a:27:f5:
                    94:fc:91:cd:bd:9d:3d:e8:e0:5a:f3:85:d9:1e:9a:
                    26:a7:41:ed:35:d2:b2:09:e7:33:12:e8:e5:14:3c:
                    e2:1b:90:a1:54:5c:f2:ff:4d:3e:78:57:a4:b9:26:
                    47:cc:7f:ba:4c:ec:f3:19:66:4d:4a:cf:e2:9b:8e:
                    12:5b:da:a9:ea:b0:51:c2:30:2a:d8:09:89:88:e3:
                    d0:dd:bf:fb:b3:a7:bf:3b:08:83:96:bc:bd:60:86:
                    ce:3c:52:45:06:29:00:63:ad:4f:6a:c0:8d:98:5e:
                    5c:59
                Exponent: 65537 (0x10001)
        X509v3 extensions:
            X509v3 Basic Constraints: 
                CA:FALSE
            X509v3 Subject Key Identifier: 
                7C:89:CB:69:BA:A1:6A:21:77:3A:9F:DE:10:2E:4C:AC:3F:D7:2D:93
            X509v3 Authority Key Identifier: 
                keyid:75:32:3A:EA:18:38:61:5D:AE:8D:27:CE:42:35:6B:C8:12:2A:F2:03
                DirName:/CN=master_CA
                serial:05:7F:C9:E6:08:D6:A9:C1:D4:15:2D:FD:D9:21:E7:3D:D8:A1:AD:F3

            X509v3 Extended Key Usage: 
                TLS Web Client Authentication
            X509v3 Key Usage: 
                Digital Signature
    Signature Algorithm: sha256WithRSAEncryption
         2a:01:3a:8b:42:04:b3:2b:1b:02:22:d6:50:14:be:13:70:e1:
         35:82:e4:f1:92:08:6f:25:e1:64:61:66:8e:12:76:26:c8:63:
         cc:2e:89:83:58:80:7b:22:fe:60:83:c8:0a:bc:51:5b:ad:18:
         db:da:7a:af:ba:f7:91:48:39:22:12:2b:bf:ab:7c:7a:f1:12:
         09:0b:2d:78:f8:4f:46:54:15:fd:43:79:8e:25:98:19:e9:c1:
         8c:9a:e6:49:30:17:37:20:e4:f1:62:13:fe:d9:6a:a5:fe:1a:
         bb:23:ba:7d:4f:95:26:3d:22:3f:b3:69:d6:b5:d1:e5:44:d0:
         e1:2d:74:fd:cf:94:40:48:be:cb:6c:13:51:da:fd:a5:64:9e:
         92:e4:3c:f5:fd:02:fb:b2:e5:0c:34:f5:fe:b0:6d:8e:38:c6:
         5d:36:8c:15:94:7b:dd:25:69:da:e3:f8:e6:fd:e8:ad:14:cd:
         e7:be:7b:01:26:39:12:3a:80:18:68:56:69:d0:ed:67:e1:03:
         82:85:6c:ec:09:b9:cf:c9:b2:aa:da:1b:7d:9f:0e:38:63:1e:
         89:dc:dd:6b:7d:54:d0:59:92:1d:53:88:f3:19:78:15:9b:e3:
         0f:72:e0:9b:74:62:ed:1b:ed:48:b0:e4:8b:28:f1:db:a6:3a:
         7b:b3:7b:6c
-----BEGIN CERTIFICATE-----
MIIDTjCCAjagAwIBAgIRAIdXRtAllYHESFGQu80Xr2gwDQYJKoZIhvcNAQELBQAw
FDESMBAGA1UEAwwJbWFzdGVyX0NBMB4XDTIzMTIxNjE3MjcwMloXDTI2MTEzMDE3
MjcwMlowDjEMMAoGA1UEAwwDcGMxMIIBIjANBgkqhkiG9w0BAQEFAAOCAQ8AMIIB
CgKCAQEA4z7usWygkssuGNpepsBclrKTLxHpPOMar0MXMuIY+OgA33j1xWLQ6Z//
33IHzmxzGW09IBi6rMvwjulffzo/uy98zAN0eTXvFrNnIzCxXMMPw/7jZlc+9v8I
2zc6z4OabTgYF4t4GGIYrV0wgJXKPoTGPv4xp4ekBCrxrIAb+TJ6YiuX6mWAE/5d
xhiVM88wEAwqJ/WU/JHNvZ096OBa84XZHpomp0HtNdKyCeczEujlFDziG5ChVFzy
/00+eFekuSZHzH+6TOzzGWZNSs/im44SW9qp6rBRwjAq2AmJiOPQ3b/7s6e/OwiD
lry9YIbOPFJFBikAY61PasCNmF5cWQIDAQABo4GgMIGdMAkGA1UdEwQCMAAwHQYD
VR0OBBYEFHyJy2m6oWohdzqf3hAuTKw/1y2TME8GA1UdIwRIMEaAFHUyOuoYOGFd
ro0nzkI1a8gSKvIDoRikFjAUMRIwEAYDVQQDDAltYXN0ZXJfQ0GCFAV/yeYI1qnB
1BUt/dkh5z3Yoa3zMBMGA1UdJQQMMAoGCCsGAQUFBwMCMAsGA1UdDwQEAwIHgDAN
BgkqhkiG9w0BAQsFAAOCAQEAKgE6i0IEsysbAiLWUBS+E3DhNYLk8ZIIbyXhZGFm
jhJ2JshjzC6Jg1iAeyL+YIPICrxRW60Y29p6r7r3kUg5IhIrv6t8evESCQstePhP
RlQV/UN5jiWYGenBjJrmSTAXNyDk8WIT/tlqpf4auyO6fU+VJj0iP7Np1rXR5UTQ
4S10/c+UQEi+y2wTUdr9pWSekuQ89f0C+7LlDDT1/rBtjjjGXTaMFZR73SVp2uP4
5v3orRTN5757ASY5EjqAGGhWadDtZ+EDgoVs7Am5z8myqtobfZ8OOGMeidzda31U
0FmSHVOI8xl4FZvjD3Lgm3Ri7RvtSLDkiyjx26Y6e7N7bA==
-----END CERTIFICATE-----
