Certificate:
    Data:
        Version: 3 (0x2)
        Serial Number:
            aa:72:5a:20:37:56:c1:74:72:f6:b7:f6:96:9b:b8:bd
        Signature Algorithm: sha256WithRSAEncryption
        Issuer: CN=master_CA
        Validity
            Not Before: Dec 16 17:27:39 2023 GMT
            Not After : Nov 30 17:27:39 2026 GMT
        Subject: CN=pc2
        Subject Public Key Info:
            Public Key Algorithm: rsaEncryption
                RSA Public-Key: (2048 bit)
                Modulus:
                    00:de:e4:33:b4:ea:49:42:72:12:47:cd:f7:fb:af:
                    96:bc:52:36:6b:98:47:49:1d:36:a6:77:e3:6b:f2:
                    28:bc:ad:ae:91:c4:11:e6:a4:44:ce:85:85:27:cd:
                    ce:10:37:54:65:f2:99:8c:45:62:a6:05:a3:a4:e2:
                    e7:d6:37:f7:26:56:d0:aa:b4:28:1a:7c:2a:41:78:
                    26:3a:e4:ac:d0:03:6e:0a:b6:2e:29:90:3e:79:df:
                    94:46:24:ed:3f:9d:67:d2:9d:08:2d:7c:c7:47:7b:
                    50:3e:0f:ef:5c:c1:03:94:f2:92:7a:a8:ed:72:4c:
                    bf:f0:d7:d9:59:d5:0e:2a:7b:51:b3:c2:bd:ce:b4:
                    47:ac:04:0b:fa:85:ba:92:64:5f:03:79:f8:f4:0f:
                    54:95:a8:b4:10:4b:33:a1:24:24:38:67:e3:ee:5f:
                    67:67:ef:eb:58:b6:34:4e:68:46:02:b2:d1:47:71:
                    d7:7c:84:3c:89:9e:27:81:4b:69:94:ce:0b:5e:81:
                    38:ac:bc:d2:49:91:ee:2d:b3:16:5e:19:f4:a2:f7:
                    65:fc:8a:39:55:8e:b7:b7:b1:18:92:66:db:55:39:
                    fe:cb:1c:87:ab:a2:fc:41:ed:4c:7b:92:b2:fc:23:
                    cf:4f:49:f6:82:95:53:37:50:d6:90:a1:43:8b:c8:
                    72:f3
                Exponent: 65537 (0x10001)
        X509v3 extensions:
            X509v3 Basic Constraints: 
                CA:FALSE
            X509v3 Subject Key Identifier: 
                91:47:CA:71:9B:25:B8:37:3C:C3:90:A7:7F:19:05:20:B3:DB:72:93
            X509v3 Authority Key Identifier: 
                keyid:75:32:3A:EA:18:38:61:5D:AE:8D:27:CE:42:35:6B:C8:12:2A:F2:03
                DirName:/CN=master_CA
                serial:05:7F:C9:E6:08:D6:A9:C1:D4:15:2D:FD:D9:21:E7:3D:D8:A1:AD:F3

            X509v3 Extended Key Usage: 
                TLS Web Client Authentication
            X509v3 Key Usage: 
                Digital Signature
    Signature Algorithm: sha256WithRSAEncryption
         4d:c9:a5:11:7c:52:3f:87:6f:db:d4:6b:40:fb:37:a7:0c:61:
         bf:df:69:f0:2d:96:12:cb:64:03:e5:42:69:00:a7:80:a4:ef:
         7a:5b:a4:71:75:27:3a:62:1a:94:93:09:48:7d:ea:14:0b:3f:
         17:bd:8f:e9:9a:ce:58:fd:86:6e:1d:b4:7c:7e:46:70:60:53:
         eb:db:36:80:4a:b2:3e:f7:9e:c0:7a:94:6a:b2:84:d3:3d:2b:
         90:aa:0f:d6:81:90:9d:9a:be:8f:d5:7c:3e:f0:4a:7a:b4:ac:
         72:1a:9a:f9:4c:59:a0:f8:11:76:dd:45:a4:b1:90:6b:41:76:
         e6:3e:30:04:c5:44:62:8a:e3:f5:62:83:c6:1f:88:eb:53:f9:
         c6:74:9d:ef:43:ef:5b:b3:d6:d9:10:31:2c:35:bd:39:75:51:
         f3:9e:1d:d3:07:7e:a0:83:8e:ff:07:36:38:ed:51:7b:97:df:
         8d:00:78:4a:5b:a4:2f:22:51:b4:26:1c:50:83:1b:be:dd:b0:
         90:06:62:7a:ab:c2:38:80:40:de:d1:16:3d:57:64:0d:3c:3a:
         2e:76:8b:a7:9a:b5:c5:fd:fe:a0:9e:84:65:db:41:d5:00:af:
         6e:9a:90:ff:fc:94:34:ba:44:a4:5f:d5:af:53:b0:35:95:ef:
         9d:3b:cf:f4
-----BEGIN CERTIFICATE-----
MIIDTjCCAjagAwIBAgIRAKpyWiA3VsF0cva39pabuL0wDQYJKoZIhvcNAQELBQAw
FDESMBAGA1UEAwwJbWFzdGVyX0NBMB4XDTIzMTIxNjE3MjczOVoXDTI2MTEzMDE3
MjczOVowDjEMMAoGA1UEAwwDcGMyMIIBIjANBgkqhkiG9w0BAQEFAAOCAQ8AMIIB
CgKCAQEA3uQztOpJQnISR833+6+WvFI2a5hHSR02pnfja/IovK2ukcQR5qREzoWF
J83OEDdUZfKZjEVipgWjpOLn1jf3JlbQqrQoGnwqQXgmOuSs0ANuCrYuKZA+ed+U
RiTtP51n0p0ILXzHR3tQPg/vXMEDlPKSeqjtcky/8NfZWdUOKntRs8K9zrRHrAQL
+oW6kmRfA3n49A9Ulai0EEszoSQkOGfj7l9nZ+/rWLY0TmhGArLRR3HXfIQ8iZ4n
gUtplM4LXoE4rLzSSZHuLbMWXhn0ovdl/Io5VY63t7EYkmbbVTn+yxyHq6L8Qe1M
e5Ky/CPPT0n2gpVTN1DWkKFDi8hy8wIDAQABo4GgMIGdMAkGA1UdEwQCMAAwHQYD
VR0OBBYEFJFHynGbJbg3PMOQp38ZBSCz23KTME8GA1UdIwRIMEaAFHUyOuoYOGFd
ro0nzkI1a8gSKvIDoRikFjAUMRIwEAYDVQQDDAltYXN0ZXJfQ0GCFAV/yeYI1qnB
1BUt/dkh5z3Yoa3zMBMGA1UdJQQMMAoGCCsGAQUFBwMCMAsGA1UdDwQEAwIHgDAN
BgkqhkiG9w0BAQsFAAOCAQEATcmlEXxSP4dv29RrQPs3pwxhv99p8C2WEstkA+VC
aQCngKTvelukcXUnOmIalJMJSH3qFAs/F72P6ZrOWP2Gbh20fH5GcGBT69s2gEqy
PveewHqUarKE0z0rkKoP1oGQnZq+j9V8PvBKerSschqa+UxZoPgRdt1FpLGQa0F2
5j4wBMVEYorj9WKDxh+I61P5xnSd70PvW7PW2RAxLDW9OXVR854d0wd+oIOO/wc2
OO1Re5ffjQB4SlukLyJRtCYcUIMbvt2wkAZieqvCOIBA3tEWPVdkDTw6LnaLp5q1
xf3+oJ6EZdtB1QCvbpqQ//yUNLpEpF/Vr1OwNZXvnTvP9A==
-----END CERTIFICATE-----
